(lp0
S'//*/div'
p1
aS"//*/span[contains(@class, 'author')]"
p2
aS"//*/div[contains(@class, 'authorInfo article-byline')]"
p3
aS"//*/div[contains(@class, 'articleHead')]"
p4
aS"//*/div[contains(@class, 'col-8')]"
p5
aS"//*/div[contains(@class, 'col-2')]"
p6
aS'//*/nav'
p7
aS"//*/div[contains(@class, 'meta')]"
p8
aS"//*/div[contains(@class, 'col-12')]"
p9
a.