(lp0
S'//*/header'
p1
aS"//*/div[contains(@class, 'container full ')][contains(@id, 'main')]"
p2
aS"//*/div[contains(@class, 'text-copy bodyCopy auto')][contains(@id, 'article-body')]"
p3
aS'//*/footer'
p4
aS"//*/nav[contains(@class, 'breadcrumb')]"
p5
aS'//*/section'
p6
aS"//*/article[contains(@class, 'news-article')]"
p7
a.