(lp0
S"//*/div[contains(@class, 'lc')]"
p1
aS'//*/div'
p2
aS"//*/span[contains(@class, 'footer-section')]"
p3
aS"//*/div[contains(@class, 'gi')]"
p4
aS"//*/div[contains(@class, 'byline')]"
p5
aS"//*/div[contains(@class, 'section')]"
p6
aS"//*/div[contains(@class, 'l-sidebar')]"
p7
aS"//*/header[contains(@class, 'article-header page-title')]"
p8
aS"//*/div[contains(@class, 'l-main')]"
p9
aS"//*/div[contains(@class, 'tag-item')]"
p10
aS"//*/div[contains(@class, 'article-entry text')]"
p11
aS"//*/div[contains(@class, 'collapse-body')]"
p12
aS"//*/div[contains(@class, 'l-two-col')]"
p13
a.